target datalayout = "e-m:e-p270:32:32-p271:32:32-p272:64:64-i64:64-i128:128-f80:128-n8:16:32:64-S128"
target triple = "x86_64-unknown-linux-gnu"

%struct.client = type { i64, i64, ptr, i32, ptr, ptr, ptr, ptr, ptr, i64, i64, i32, ptr, i32, i32, ptr, i64, ptr, ptr, ptr, ptr, i32, i32, i64, ptr, i64, ptr, i64, i64, i64, i32, ptr, i64, i64, i32, i32, i32, i32, i64, i64, ptr, i64, i64, i64, i64, i64, i64, i64, i64, [41 x i8], i32, ptr, i32, i32, %struct.multiState, %struct.blockingState, i64, ptr, ptr, ptr, ptr, ptr, ptr, ptr, ptr, ptr, ptr, ptr, ptr, ptr, ptr, i64, ptr, i64, i32, ptr, ptr, ptr, i64, %struct.listNode, i64, i64, i32, i64, ptr }
%struct.multiState = type { ptr, i32, i32, i32, i64, i32 }
%struct.blockingState = type { i32, i64, i32, ptr, i32, i32, i64, ptr, ptr }
%struct.listNode = type { ptr, ptr, ptr }

; Function Attrs: nounwind uwtable
define dso_local i32 @canFeedReplicaReplBuffer(ptr noundef %replica) #0 {
entry:
  %retval = alloca i32, align 4
  %replica.addr = alloca ptr, align 8
  store ptr %replica, ptr %replica.addr, align 8
  %0 = load ptr, ptr %replica.addr, align 8
  %flags = getelementptr inbounds %struct.client, ptr %0, i32 0, i32 1
  %1 = load i64, ptr %flags, align 8
  %and = and i64 %1, 4398046511104
  %tobool = icmp ne i64 %and, 0
  br i1 %tobool, label %if.then, label %if.end

if.then:                                          ; preds = %entry
  store i32 0, ptr %retval, align 4
  br label %return

if.end:                                           ; preds = %entry
  %2 = load ptr, ptr %replica.addr, align 8
  %replstate = getelementptr inbounds %struct.client, ptr %2, i32 0, i32 35
  %3 = load i32, ptr %replstate, align 4
  %cmp = icmp eq i32 %3, 6
  br i1 %cmp, label %if.then1, label %if.end2

if.then1:                                         ; preds = %if.end
  store i32 0, ptr %retval, align 4
  br label %return

if.end2:                                          ; preds = %if.end
  store i32 1, ptr %retval, align 4
  br label %return

return:                                           ; preds = %if.end2, %if.then1, %if.then
  %4 = load i32, ptr %retval, align 4
  ret i32 %4
}