; Function Attrs: mustprogress nofree norecurse nosync nounwind willreturn memory(argmem: read) uwtable
define dso_local i32 @canFeedReplicaReplBuffer(ptr nocapture noundef readonly %replica) local_unnamed_addr #7 {
entry:
  %flags = getelementptr inbounds i8, ptr %replica, i64 8
  %0 = load i64, ptr %flags, align 8
  %and = and i64 %0, 4398046511104
  %tobool.not = icmp eq i64 %and, 0
  br i1 %tobool.not, label %if.end, label %return

if.end:                                           ; preds = %entry
  %replstate = getelementptr inbounds i8, ptr %replica, i64 260
  %1 = load i32, ptr %replstate, align 4
  %cmp = icmp ne i32 %1, 6
  %. = zext i1 %cmp to i32
  br label %return

return:                                           ; preds = %if.end, %entry
  %retval.0 = phi i32 [ 0, %entry ], [ %., %if.end ]
  ret i32 %retval.0
}